; Function Attrs: nounwind uwtable
define dso_local i32 @Curl_ntlm_core_mk_lmv2_resp(ptr noundef %0, ptr noundef readonly captures(none) %1, ptr noundef readonly captures(none) %2, ptr noundef writeonly captures(none) %3) local_unnamed_addr #0 {
  %5 = alloca [16 x i8], align 16
  %6 = alloca [16 x i8], align 16
  call void @llvm.lifetime.start.p0(i64 16, ptr nonnull %5) #8
  call void @llvm.lifetime.start.p0(i64 16, ptr nonnull %6) #8
  %7 = load i64, ptr %2, align 1
  store i64 %7, ptr %5, align 16
  %8 = getelementptr inbounds nuw i8, ptr %5, i64 8
  %9 = load i64, ptr %1, align 1
  store i64 %9, ptr %8, align 8
  %10 = call i32 @Curl_hmacit(ptr noundef nonnull @Curl_HMAC_MD5, ptr noundef %0, i64 noundef 16, ptr noundef nonnull %5, i64 noundef 16, ptr noundef nonnull %6) #8
  %.not = icmp eq i32 %10, 0
  br i1 %.not, label %11, label %14

11:                                               ; preds = %4
  call void @llvm.memcpy.p0.p0.i64(ptr noundef nonnull align 1 dereferenceable(16) %3, ptr noundef nonnull align 16 dereferenceable(16) %6, i64 16, i1 false)
  %12 = getelementptr inbounds nuw i8, ptr %3, i64 16
  %13 = load i64, ptr %1, align 1
  store i64 %13, ptr %12, align 1
  br label %14

14:                                               ; preds = %4, %11
  call void @llvm.lifetime.end.p0(i64 16, ptr nonnull %6) #8
  call void @llvm.lifetime.end.p0(i64 16, ptr nonnull %5) #8
  ret i32 %10
}